; Function Attrs: nounwind uwtable
define i32 @pmix_bfrops_base_pack_timeval(ptr noundef %0, ptr noundef %1, ptr noundef readonly captures(none) %2, i32 noundef %3, i16 noundef zeroext %4) local_unnamed_addr #0 {
  %6 = alloca [2 x i64], align 16
  call void @llvm.lifetime.start.p0(i64 16, ptr nonnull %6) #8
  %7 = getelementptr inbounds nuw i8, ptr %0, i64 152
  %8 = icmp sgt i32 %3, 0
  br i1 %8, label %.lr.ph, label %.thread

.lr.ph:                                           ; preds = %5
  %9 = getelementptr inbounds nuw i8, ptr %6, i64 8
  %10 = getelementptr inbounds nuw i8, ptr %0, i64 128
  %wide.trip.count = zext nneg i32 %3 to i64
  br label %12

11:                                               ; preds = %22
  %indvars.iv.next = add nuw nsw i64 %indvars.iv, 1
  %exitcond.not = icmp eq i64 %indvars.iv.next, %wide.trip.count
  br i1 %exitcond.not, label %.thread, label %12, !llvm.loop !53

12:                                               ; preds = %.lr.ph, %11
  %indvars.iv = phi i64 [ 0, %.lr.ph ], [ %indvars.iv.next, %11 ]
  %13 = getelementptr inbounds nuw %struct.timeval, ptr %2, i64 %indvars.iv
  %14 = load i64, ptr %13, align 8, !tbaa !54
  store i64 %14, ptr %6, align 16, !tbaa !56
  %15 = getelementptr inbounds nuw i8, ptr %13, i64 8
  %16 = load i64, ptr %15, align 8, !tbaa !57
  store i64 %16, ptr %9, align 8, !tbaa !56
  %17 = load i32, ptr %10, align 8, !tbaa !15
  %.not.i = icmp sgt i32 %17, 10
  br i1 %.not.i, label %pmix_pointer_array_get_item.exit, label %.thread, !prof !18

pmix_pointer_array_get_item.exit:                 ; preds = %12
  %18 = load ptr, ptr %7, align 8, !tbaa !19
  %19 = getelementptr inbounds nuw i8, ptr %18, i64 80
  %20 = load ptr, ptr %19, align 8, !tbaa !20
  %21 = icmp eq ptr %20, null
  br i1 %21, label %.thread, label %22

22:                                               ; preds = %pmix_pointer_array_get_item.exit
  %23 = getelementptr inbounds nuw i8, ptr %20, i64 136
  %24 = load ptr, ptr %23, align 8, !tbaa !21
  %25 = call i32 %24(ptr noundef nonnull %0, ptr noundef %1, ptr noundef nonnull %6, i32 noundef 2, i16 noundef zeroext 10) #8
  %.not = icmp eq i32 %25, 0
  br i1 %.not, label %11, label %.thread

.thread:                                          ; preds = %22, %11, %pmix_pointer_array_get_item.exit, %12, %5
  %.0 = phi i32 [ 0, %5 ], [ -16, %12 ], [ -16, %pmix_pointer_array_get_item.exit ], [ 0, %11 ], [ %25, %22 ]
  call void @llvm.lifetime.end.p0(i64 16, ptr nonnull %6) #8
  ret i32 %.0
}